target datalayout = "e-m:e-p270:32:32-p271:32:32-p272:64:64-i64:64-i128:128-f80:128-n8:16:32:64-S128"
target triple = "x86_64-pc-linux-gnu"

%struct.AVFilterContext = type { ptr, ptr, ptr, ptr, ptr, i32, ptr, ptr, i32, ptr, ptr, i32, i32, ptr, ptr, ptr, ptr, i32, ptr, i32, i32 }
%struct.YAEPContext = type { ptr, i32, i32, i32, i32, [4 x i32], [4 x i32], i32, ptr, ptr, i32, ptr, ptr }
%struct.ThreadData = type { i32, i32, i32, i32, ptr, ptr }

; Function Attrs: nounwind uwtable
define internal i32 @pre_calculate_col(ptr noundef %0, ptr noundef %1, i32 noundef %2, i32 noundef %3) #2 {
  %5 = alloca ptr, align 8
  %6 = alloca ptr, align 8
  %7 = alloca i32, align 4
  %8 = alloca i32, align 4
  %9 = alloca ptr, align 8
  %10 = alloca ptr, align 8
  %11 = alloca i32, align 4
  %12 = alloca i32, align 4
  %13 = alloca i32, align 4
  %14 = alloca i32, align 4
  %15 = alloca i32, align 4
  %16 = alloca ptr, align 8
  %17 = alloca ptr, align 8
  %18 = alloca i32, align 4
  %19 = alloca i32, align 4
  store ptr %0, ptr %5, align 8, !tbaa !4
  store ptr %1, ptr %6, align 8, !tbaa !70
  store i32 %2, ptr %7, align 4, !tbaa !37
  store i32 %3, ptr %8, align 4, !tbaa !37
  call void @llvm.lifetime.start.p0(i64 8, ptr %9) #6
  %20 = load ptr, ptr %6, align 8, !tbaa !70
  store ptr %20, ptr %9, align 8, !tbaa !71
  call void @llvm.lifetime.start.p0(i64 8, ptr %10) #6
  %21 = load ptr, ptr %5, align 8, !tbaa !4
  %22 = getelementptr inbounds nuw %struct.AVFilterContext, ptr %21, i32 0, i32 9
  %23 = load ptr, ptr %22, align 8, !tbaa !9
  store ptr %23, ptr %10, align 8, !tbaa !22
  call void @llvm.lifetime.start.p0(i64 4, ptr %11) #6
  %24 = load ptr, ptr %9, align 8, !tbaa !71
  %25 = getelementptr inbounds nuw %struct.ThreadData, ptr %24, i32 0, i32 0
  %26 = load i32, ptr %25, align 8, !tbaa !47
  store i32 %26, ptr %11, align 4, !tbaa !37
  call void @llvm.lifetime.start.p0(i64 4, ptr %12) #6
  %27 = load ptr, ptr %9, align 8, !tbaa !71
  %28 = getelementptr inbounds nuw %struct.ThreadData, ptr %27, i32 0, i32 1
  %29 = load i32, ptr %28, align 4, !tbaa !49
  store i32 %29, ptr %12, align 4, !tbaa !37
  call void @llvm.lifetime.start.p0(i64 4, ptr %13) #6
  %30 = load ptr, ptr %10, align 8, !tbaa !22
  %31 = getelementptr inbounds nuw %struct.YAEPContext, ptr %30, i32 0, i32 10
  %32 = load i32, ptr %31, align 8, !tbaa !67
  store i32 %32, ptr %13, align 4, !tbaa !37
  call void @llvm.lifetime.start.p0(i64 4, ptr %14) #6
  %33 = load i32, ptr %11, align 4, !tbaa !37
  %34 = load i32, ptr %7, align 4, !tbaa !37
  %35 = mul nsw i32 %33, %34
  %36 = load i32, ptr %8, align 4, !tbaa !37
  %37 = sdiv i32 %35, %36
  store i32 %37, ptr %14, align 4, !tbaa !37
  call void @llvm.lifetime.start.p0(i64 4, ptr %15) #6
  %38 = load i32, ptr %11, align 4, !tbaa !37
  %39 = load i32, ptr %7, align 4, !tbaa !37
  %40 = add nsw i32 %39, 1
  %41 = mul nsw i32 %38, %40
  %42 = load i32, ptr %8, align 4, !tbaa !37
  %43 = sdiv i32 %41, %42
  store i32 %43, ptr %15, align 4, !tbaa !37
  call void @llvm.lifetime.start.p0(i64 8, ptr %16) #6
  call void @llvm.lifetime.start.p0(i64 8, ptr %17) #6
  call void @llvm.lifetime.start.p0(i64 4, ptr %18) #6
  call void @llvm.lifetime.start.p0(i64 4, ptr %19) #6
  %44 = load i32, ptr %14, align 4, !tbaa !37
  store i32 %44, ptr %18, align 4, !tbaa !37
  br label %45

45:                                               ; preds = %97, %4
  %46 = load i32, ptr %18, align 4, !tbaa !37
  %47 = load i32, ptr %15, align 4, !tbaa !37
  %48 = icmp slt i32 %46, %47
  br i1 %48, label %49, label %100

49:                                               ; preds = %45
  %50 = load ptr, ptr %10, align 8, !tbaa !22
  %51 = getelementptr inbounds nuw %struct.YAEPContext, ptr %50, i32 0, i32 8
  %52 = load ptr, ptr %51, align 8, !tbaa !68
  %53 = load i32, ptr %18, align 4, !tbaa !37
  %54 = sext i32 %53 to i64
  %55 = getelementptr inbounds i64, ptr %52, i64 %54
  %56 = getelementptr inbounds i64, ptr %55, i64 1
  store ptr %56, ptr %16, align 8, !tbaa !73
  %57 = load ptr, ptr %10, align 8, !tbaa !22
  %58 = getelementptr inbounds nuw %struct.YAEPContext, ptr %57, i32 0, i32 9
  %59 = load ptr, ptr %58, align 8, !tbaa !69
  %60 = load i32, ptr %18, align 4, !tbaa !37
  %61 = sext i32 %60 to i64
  %62 = getelementptr inbounds i64, ptr %59, i64 %61
  %63 = getelementptr inbounds i64, ptr %62, i64 1
  store ptr %63, ptr %17, align 8, !tbaa !73
  store i32 0, ptr %19, align 4, !tbaa !37
  br label %64

64:                                               ; preds = %93, %49
  %65 = load i32, ptr %19, align 4, !tbaa !37
  %66 = load i32, ptr %12, align 4, !tbaa !37
  %67 = icmp slt i32 %65, %66
  br i1 %67, label %68, label %96

68:                                               ; preds = %64
  %69 = load ptr, ptr %16, align 8, !tbaa !73
  %70 = load i64, ptr %69, align 8, !tbaa !74
  %71 = load ptr, ptr %16, align 8, !tbaa !73
  %72 = load i32, ptr %13, align 4, !tbaa !37
  %73 = sext i32 %72 to i64
  %74 = getelementptr inbounds i64, ptr %71, i64 %73
  %75 = load i64, ptr %74, align 8, !tbaa !74
  %76 = add i64 %75, %70
  store i64 %76, ptr %74, align 8, !tbaa !74
  %77 = load ptr, ptr %17, align 8, !tbaa !73
  %78 = load i64, ptr %77, align 8, !tbaa !74
  %79 = load ptr, ptr %17, align 8, !tbaa !73
  %80 = load i32, ptr %13, align 4, !tbaa !37
  %81 = sext i32 %80 to i64
  %82 = getelementptr inbounds i64, ptr %79, i64 %81
  %83 = load i64, ptr %82, align 8, !tbaa !74
  %84 = add i64 %83, %78
  store i64 %84, ptr %82, align 8, !tbaa !74
  %85 = load i32, ptr %13, align 4, !tbaa !37
  %86 = load ptr, ptr %16, align 8, !tbaa !73
  %87 = sext i32 %85 to i64
  %88 = getelementptr inbounds i64, ptr %86, i64 %87
  store ptr %88, ptr %16, align 8, !tbaa !73
  %89 = load i32, ptr %13, align 4, !tbaa !37
  %90 = load ptr, ptr %17, align 8, !tbaa !73
  %91 = sext i32 %89 to i64
  %92 = getelementptr inbounds i64, ptr %90, i64 %91
  store ptr %92, ptr %17, align 8, !tbaa !73
  br label %93

93:                                               ; preds = %68
  %94 = load i32, ptr %19, align 4, !tbaa !37
  %95 = add nsw i32 %94, 1
  store i32 %95, ptr %19, align 4, !tbaa !37
  br label %64, !llvm.loop !75

96:                                               ; preds = %64
  br label %97

97:                                               ; preds = %96
  %98 = load i32, ptr %18, align 4, !tbaa !37
  %99 = add nsw i32 %98, 1
  store i32 %99, ptr %18, align 4, !tbaa !37
  br label %45, !llvm.loop !76

100:                                              ; preds = %45
  call void @llvm.lifetime.end.p0(i64 4, ptr %19) #6
  call void @llvm.lifetime.end.p0(i64 4, ptr %18) #6
  call void @llvm.lifetime.end.p0(i64 8, ptr %17) #6
  call void @llvm.lifetime.end.p0(i64 8, ptr %16) #6
  call void @llvm.lifetime.end.p0(i64 4, ptr %15) #6
  call void @llvm.lifetime.end.p0(i64 4, ptr %14) #6
  call void @llvm.lifetime.end.p0(i64 4, ptr %13) #6
  call void @llvm.lifetime.end.p0(i64 4, ptr %12) #6
  call void @llvm.lifetime.end.p0(i64 4, ptr %11) #6
  call void @llvm.lifetime.end.p0(i64 8, ptr %10) #6
  call void @llvm.lifetime.end.p0(i64 8, ptr %9) #6
  ret i32 0
}