; Function Attrs: nofree norecurse nosync nounwind memory(readwrite, inaccessiblemem: none) uwtable
define internal noundef i32 @pre_calculate_col(ptr noundef readonly captures(none) %0, ptr noundef readonly captures(none) %1, i32 noundef %2, i32 noundef %3) #5 {
  %5 = load i32, ptr %1, align 8, !tbaa !44
  %6 = getelementptr inbounds nuw i8, ptr %1, i64 4
  %7 = load i32, ptr %6, align 4, !tbaa !46
  %8 = mul nsw i32 %5, %2
  %9 = sdiv i32 %8, %3
  %10 = add nsw i32 %2, 1
  %11 = mul nsw i32 %5, %10
  %12 = sdiv i32 %11, %3
  %13 = icmp slt i32 %9, %12
  br i1 %13, label %.lr.ph39, label %._crit_edge40

.lr.ph39:                                         ; preds = %4
  %14 = getelementptr inbounds nuw i8, ptr %0, i64 72
  %15 = load ptr, ptr %14, align 8, !tbaa !4
  %16 = getelementptr inbounds nuw i8, ptr %15, i64 80
  %17 = load i32, ptr %16, align 8, !tbaa !62
  %18 = getelementptr inbounds nuw i8, ptr %15, i64 64
  %19 = load ptr, ptr %18, align 8, !tbaa !63
  %invariant.gep = getelementptr i8, ptr %19, i64 8
  %20 = getelementptr inbounds nuw i8, ptr %15, i64 72
  %21 = load ptr, ptr %20, align 8, !tbaa !64
  %invariant.gep41 = getelementptr i8, ptr %21, i64 8
  %22 = icmp sgt i32 %7, 0
  %23 = sext i32 %17 to i64
  br i1 %22, label %.lr.ph.us.preheader, label %._crit_edge40

.lr.ph.us.preheader:                              ; preds = %.lr.ph39
  %24 = sext i32 %9 to i64
  %wide.trip.count = sext i32 %12 to i64
  br label %.lr.ph.us

.lr.ph.us:                                        ; preds = %.lr.ph.us.preheader, %._crit_edge.us
  %indvars.iv = phi i64 [ %24, %.lr.ph.us.preheader ], [ %indvars.iv.next, %._crit_edge.us ]
  %gep.us = getelementptr i64, ptr %invariant.gep, i64 %indvars.iv
  %gep42.us = getelementptr i64, ptr %invariant.gep41, i64 %indvars.iv
  br label %25

25:                                               ; preds = %.lr.ph.us, %25
  %.036.us = phi i32 [ 0, %.lr.ph.us ], [ %34, %25 ]
  %.03235.us = phi ptr [ %gep42.us, %.lr.ph.us ], [ %31, %25 ]
  %.03334.us = phi ptr [ %gep.us, %.lr.ph.us ], [ %27, %25 ]
  %26 = load i64, ptr %.03334.us, align 8, !tbaa !65
  %27 = getelementptr inbounds i64, ptr %.03334.us, i64 %23
  %28 = load i64, ptr %27, align 8, !tbaa !65
  %29 = add i64 %28, %26
  store i64 %29, ptr %27, align 8, !tbaa !65
  %30 = load i64, ptr %.03235.us, align 8, !tbaa !65
  %31 = getelementptr inbounds i64, ptr %.03235.us, i64 %23
  %32 = load i64, ptr %31, align 8, !tbaa !65
  %33 = add i64 %32, %30
  store i64 %33, ptr %31, align 8, !tbaa !65
  %34 = add nuw nsw i32 %.036.us, 1
  %exitcond.not = icmp eq i32 %34, %7
  br i1 %exitcond.not, label %._crit_edge.us, label %25, !llvm.loop !66

._crit_edge.us:                                   ; preds = %25
  %indvars.iv.next = add nsw i64 %indvars.iv, 1
  %exitcond45.not = icmp eq i64 %indvars.iv.next, %wide.trip.count
  br i1 %exitcond45.not, label %._crit_edge40, label %.lr.ph.us, !llvm.loop !67

._crit_edge40:                                    ; preds = %._crit_edge.us, %.lr.ph39, %4
  ret i32 0
}